; Function Attrs: nounwind uwtable
define ptr @l_Lean_evalConst___rarg___lambda__2(ptr noundef %0, ptr noundef %1, ptr noundef %2, ptr noundef %3, ptr noundef %4, ptr noundef %5) #0 {
  tail call void @lean_inc_heartbeat() #4
  %7 = tail call noalias ptr @mi_malloc_small(i64 noundef 56) #4
  %8 = icmp eq ptr %7, null
  br i1 %8, label %9, label %lean_alloc_closure.exit

9:                                                ; preds = %6
  tail call void @lean_internal_panic_out_of_memory() #5
  unreachable

lean_alloc_closure.exit:                          ; preds = %6
  %10 = getelementptr inbounds nuw i8, ptr %7, i64 4
  store i32 1, ptr %7, align 4, !tbaa !4
  store i32 -184549320, ptr %10, align 4
  %11 = getelementptr inbounds nuw i8, ptr %7, i64 8
  store ptr @l_Lean_evalConst___rarg___lambda__1___boxed, ptr %11, align 8, !tbaa !10
  %12 = getelementptr inbounds nuw i8, ptr %7, i64 16
  store i16 5, ptr %12, align 8, !tbaa !12
  %13 = getelementptr inbounds nuw i8, ptr %7, i64 18
  store i16 4, ptr %13, align 2, !tbaa !12
  %14 = getelementptr inbounds nuw i8, ptr %7, i64 24
  store ptr %5, ptr %14, align 8, !tbaa !10
  %15 = getelementptr inbounds nuw i8, ptr %7, i64 32
  store ptr %0, ptr %15, align 8, !tbaa !10
  %16 = getelementptr inbounds nuw i8, ptr %7, i64 40
  store ptr %1, ptr %16, align 8, !tbaa !10
  %17 = getelementptr inbounds nuw i8, ptr %7, i64 48
  store ptr %2, ptr %17, align 8, !tbaa !10
  %18 = tail call ptr @lean_apply_4(ptr noundef %3, ptr noundef nonnull inttoptr (i64 1 to ptr), ptr noundef nonnull inttoptr (i64 1 to ptr), ptr noundef %4, ptr noundef nonnull %7) #4
  ret ptr %18
}